target datalayout = "e-m:e-p270:32:32-p271:32:32-p272:64:64-i64:64-i128:128-f80:128-n8:16:32:64-S128"
target triple = "x86_64-pc-linux-gnu"

%struct.boxf = type { %struct.pointf_s, %struct.pointf_s }
%struct.pointf_s = type { double, double }
%struct.ginfo = type { i32, ptr, i32, i64 }

@Verbose = external global i8, align 1
@stderr = external global ptr, align 8
@.str.23 = private unnamed_addr constant [27 x i8] c"%s no. cells %d W %d H %d\0A\00", align 1
@.str.24 = private unnamed_addr constant [18 x i8] c"  %.0f %.0f cell\0A\00", align 1

; Function Attrs: nounwind uwtable
define internal i32 @GRID(double noundef %0, i32 noundef %1) #0 {
  %3 = alloca double, align 8
  %4 = alloca i32, align 4
  %5 = alloca double, align 8
  store double %0, ptr %3, align 8, !tbaa !27
  store i32 %1, ptr %4, align 4, !tbaa !35
  call void @llvm.lifetime.start.p0(i64 8, ptr %5) #12
  %6 = load double, ptr %3, align 8, !tbaa !27
  %7 = load i32, ptr %4, align 4, !tbaa !35
  %8 = sitofp i32 %7 to double
  %9 = fdiv double %6, %8
  %10 = call double @llvm.ceil.f64(double %9)
  store double %10, ptr %5, align 8, !tbaa !27
  %11 = load double, ptr %5, align 8, !tbaa !27
  %12 = fptosi double %11 to i32
  call void @llvm.lifetime.end.p0(i64 8, ptr %5) #12
  ret i32 %12
}

; Function Attrs: nounwind uwtable
define internal void @genBox(ptr noundef byval(%struct.boxf) align 8 %0, ptr noundef %1, i32 noundef %2, i32 noundef %3, double %4, double %5, ptr noundef %6) #0 {
  %8 = alloca %struct.pointf_s, align 8
  %9 = alloca ptr, align 8
  %10 = alloca i32, align 4
  %11 = alloca i32, align 4
  %12 = alloca ptr, align 8
  %13 = alloca ptr, align 8
  %14 = alloca i32, align 4
  %15 = alloca i32, align 4
  %16 = alloca %struct.pointf_s, align 8
  %17 = alloca %struct.pointf_s, align 8
  %18 = alloca double, align 8
  %19 = alloca double, align 8
  %20 = alloca %struct.boxf, align 8
  %21 = alloca %struct.pointf_s, align 8
  %22 = alloca %struct.pointf_s, align 8
  %23 = alloca i32, align 4
  %24 = getelementptr inbounds nuw { double, double }, ptr %8, i32 0, i32 0
  store double %4, ptr %24, align 8
  %25 = getelementptr inbounds nuw { double, double }, ptr %8, i32 0, i32 1
  store double %5, ptr %25, align 8
  store ptr %1, ptr %9, align 8, !tbaa !12
  store i32 %2, ptr %10, align 4, !tbaa !35
  store i32 %3, ptr %11, align 4, !tbaa !35
  store ptr %6, ptr %12, align 8, !tbaa !33
  call void @llvm.lifetime.start.p0(i64 8, ptr %13) #12
  call void @llvm.lifetime.start.p0(i64 4, ptr %14) #12
  call void @llvm.lifetime.start.p0(i64 4, ptr %15) #12
  call void @llvm.lifetime.start.p0(i64 16, ptr %16) #12
  call void @llvm.lifetime.start.p0(i64 16, ptr %17) #12
  call void @llvm.lifetime.start.p0(i64 8, ptr %18) #12
  call void @llvm.lifetime.start.p0(i64 8, ptr %19) #12
  call void @llvm.lifetime.start.p0(i64 32, ptr %20) #12
  %26 = getelementptr inbounds nuw %struct.boxf, ptr %20, i32 0, i32 0
  %27 = getelementptr inbounds nuw %struct.pointf_s, ptr %26, i32 0, i32 0
  %28 = getelementptr inbounds nuw %struct.boxf, ptr %0, i32 0, i32 0
  %29 = getelementptr inbounds nuw %struct.pointf_s, ptr %28, i32 0, i32 0
  %30 = load double, ptr %29, align 8, !tbaa !62
  %31 = call double @llvm.round.f64(double %30)
  store double %31, ptr %27, align 8, !tbaa !57
  %32 = getelementptr inbounds nuw %struct.pointf_s, ptr %26, i32 0, i32 1
  %33 = getelementptr inbounds nuw %struct.boxf, ptr %0, i32 0, i32 0
  %34 = getelementptr inbounds nuw %struct.pointf_s, ptr %33, i32 0, i32 1
  %35 = load double, ptr %34, align 8, !tbaa !63
  %36 = call double @llvm.round.f64(double %35)
  store double %36, ptr %32, align 8, !tbaa !59
  %37 = getelementptr inbounds nuw %struct.boxf, ptr %20, i32 0, i32 1
  %38 = getelementptr inbounds nuw %struct.pointf_s, ptr %37, i32 0, i32 0
  %39 = getelementptr inbounds nuw %struct.boxf, ptr %0, i32 0, i32 1
  %40 = getelementptr inbounds nuw %struct.pointf_s, ptr %39, i32 0, i32 0
  %41 = load double, ptr %40, align 8, !tbaa !64
  %42 = call double @llvm.round.f64(double %41)
  store double %42, ptr %38, align 8, !tbaa !57
  %43 = getelementptr inbounds nuw %struct.pointf_s, ptr %37, i32 0, i32 1
  %44 = getelementptr inbounds nuw %struct.boxf, ptr %0, i32 0, i32 1
  %45 = getelementptr inbounds nuw %struct.pointf_s, ptr %44, i32 0, i32 1
  %46 = load double, ptr %45, align 8, !tbaa !65
  %47 = call double @llvm.round.f64(double %46)
  store double %47, ptr %43, align 8, !tbaa !59
  %48 = call ptr @newPS()
  store ptr %48, ptr %13, align 8, !tbaa !76
  %49 = getelementptr inbounds nuw %struct.pointf_s, ptr %8, i32 0, i32 0
  %50 = load double, ptr %49, align 8, !tbaa !57
  %51 = load i32, ptr %11, align 4, !tbaa !35
  %52 = uitofp i32 %51 to double
  %53 = fsub double %50, %52
  %54 = getelementptr inbounds nuw %struct.pointf_s, ptr %17, i32 0, i32 0
  store double %53, ptr %54, align 8, !tbaa !57
  %55 = getelementptr inbounds nuw %struct.pointf_s, ptr %8, i32 0, i32 1
  %56 = load double, ptr %55, align 8, !tbaa !59
  %57 = load i32, ptr %11, align 4, !tbaa !35
  %58 = uitofp i32 %57 to double
  %59 = fsub double %56, %58
  %60 = getelementptr inbounds nuw %struct.pointf_s, ptr %17, i32 0, i32 1
  store double %59, ptr %60, align 8, !tbaa !59
  %61 = getelementptr inbounds nuw %struct.pointf_s, ptr %8, i32 0, i32 0
  %62 = load double, ptr %61, align 8, !tbaa !57
  %63 = getelementptr inbounds nuw %struct.boxf, ptr %20, i32 0, i32 1
  %64 = getelementptr inbounds nuw %struct.pointf_s, ptr %63, i32 0, i32 0
  %65 = load double, ptr %64, align 8, !tbaa !64
  %66 = fadd double %62, %65
  %67 = getelementptr inbounds nuw %struct.boxf, ptr %20, i32 0, i32 0
  %68 = getelementptr inbounds nuw %struct.pointf_s, ptr %67, i32 0, i32 0
  %69 = load double, ptr %68, align 8, !tbaa !62
  %70 = fsub double %66, %69
  %71 = load i32, ptr %11, align 4, !tbaa !35
  %72 = uitofp i32 %71 to double
  %73 = fadd double %70, %72
  %74 = getelementptr inbounds nuw %struct.pointf_s, ptr %16, i32 0, i32 0
  store double %73, ptr %74, align 8, !tbaa !57
  %75 = getelementptr inbounds nuw %struct.pointf_s, ptr %8, i32 0, i32 1
  %76 = load double, ptr %75, align 8, !tbaa !59
  %77 = getelementptr inbounds nuw %struct.boxf, ptr %20, i32 0, i32 1
  %78 = getelementptr inbounds nuw %struct.pointf_s, ptr %77, i32 0, i32 1
  %79 = load double, ptr %78, align 8, !tbaa !65
  %80 = fadd double %76, %79
  %81 = getelementptr inbounds nuw %struct.boxf, ptr %20, i32 0, i32 0
  %82 = getelementptr inbounds nuw %struct.pointf_s, ptr %81, i32 0, i32 1
  %83 = load double, ptr %82, align 8, !tbaa !63
  %84 = fsub double %80, %83
  %85 = load i32, ptr %11, align 4, !tbaa !35
  %86 = uitofp i32 %85 to double
  %87 = fadd double %84, %86
  %88 = getelementptr inbounds nuw %struct.pointf_s, ptr %16, i32 0, i32 1
  store double %87, ptr %88, align 8, !tbaa !59
  %89 = getelementptr inbounds nuw %struct.pointf_s, ptr %17, i32 0, i32 0
  %90 = load double, ptr %89, align 8, !tbaa !57
  %91 = fcmp oge double %90, 0.000000e+00
  br i1 %91, label %92, label %98

92:                                               ; preds = %7
  %93 = getelementptr inbounds nuw %struct.pointf_s, ptr %17, i32 0, i32 0
  %94 = load double, ptr %93, align 8, !tbaa !57
  %95 = load i32, ptr %10, align 4, !tbaa !35
  %96 = sitofp i32 %95 to double
  %97 = fdiv double %94, %96
  br label %106

98:                                               ; preds = %7
  %99 = getelementptr inbounds nuw %struct.pointf_s, ptr %17, i32 0, i32 0
  %100 = load double, ptr %99, align 8, !tbaa !57
  %101 = fadd double %100, 1.000000e+00
  %102 = load i32, ptr %10, align 4, !tbaa !35
  %103 = sitofp i32 %102 to double
  %104 = fdiv double %101, %103
  %105 = fsub double %104, 1.000000e+00
  br label %106

106:                                              ; preds = %98, %92
  %107 = phi double [ %97, %92 ], [ %105, %98 ]
  %108 = getelementptr inbounds nuw %struct.pointf_s, ptr %17, i32 0, i32 0
  store double %107, ptr %108, align 8, !tbaa !57
  %109 = getelementptr inbounds nuw %struct.pointf_s, ptr %17, i32 0, i32 1
  %110 = load double, ptr %109, align 8, !tbaa !59
  %111 = fcmp oge double %110, 0.000000e+00
  br i1 %111, label %112, label %118

112:                                              ; preds = %106
  %113 = getelementptr inbounds nuw %struct.pointf_s, ptr %17, i32 0, i32 1
  %114 = load double, ptr %113, align 8, !tbaa !59
  %115 = load i32, ptr %10, align 4, !tbaa !35
  %116 = sitofp i32 %115 to double
  %117 = fdiv double %114, %116
  br label %126

118:                                              ; preds = %106
  %119 = getelementptr inbounds nuw %struct.pointf_s, ptr %17, i32 0, i32 1
  %120 = load double, ptr %119, align 8, !tbaa !59
  %121 = fadd double %120, 1.000000e+00
  %122 = load i32, ptr %10, align 4, !tbaa !35
  %123 = sitofp i32 %122 to double
  %124 = fdiv double %121, %123
  %125 = fsub double %124, 1.000000e+00
  br label %126

126:                                              ; preds = %118, %112
  %127 = phi double [ %117, %112 ], [ %125, %118 ]
  %128 = getelementptr inbounds nuw %struct.pointf_s, ptr %17, i32 0, i32 1
  store double %127, ptr %128, align 8, !tbaa !59
  %129 = getelementptr inbounds nuw %struct.pointf_s, ptr %21, i32 0, i32 0
  %130 = getelementptr inbounds nuw %struct.pointf_s, ptr %17, i32 0, i32 0
  %131 = load double, ptr %130, align 8, !tbaa !57
  %132 = call double @llvm.round.f64(double %131)
  store double %132, ptr %129, align 8, !tbaa !57
  %133 = getelementptr inbounds nuw %struct.pointf_s, ptr %21, i32 0, i32 1
  %134 = getelementptr inbounds nuw %struct.pointf_s, ptr %17, i32 0, i32 1
  %135 = load double, ptr %134, align 8, !tbaa !59
  %136 = call double @llvm.round.f64(double %135)
  store double %136, ptr %133, align 8, !tbaa !59
  call void @llvm.memcpy.p0.p0.i64(ptr align 8 %17, ptr align 8 %21, i64 16, i1 false), !tbaa.struct !102
  %137 = getelementptr inbounds nuw %struct.pointf_s, ptr %16, i32 0, i32 0
  %138 = load double, ptr %137, align 8, !tbaa !57
  %139 = fcmp oge double %138, 0.000000e+00
  br i1 %139, label %140, label %146

140:                                              ; preds = %126
  %141 = getelementptr inbounds nuw %struct.pointf_s, ptr %16, i32 0, i32 0
  %142 = load double, ptr %141, align 8, !tbaa !57
  %143 = load i32, ptr %10, align 4, !tbaa !35
  %144 = sitofp i32 %143 to double
  %145 = fdiv double %142, %144
  br label %154

146:                                              ; preds = %126
  %147 = getelementptr inbounds nuw %struct.pointf_s, ptr %16, i32 0, i32 0
  %148 = load double, ptr %147, align 8, !tbaa !57
  %149 = fadd double %148, 1.000000e+00
  %150 = load i32, ptr %10, align 4, !tbaa !35
  %151 = sitofp i32 %150 to double
  %152 = fdiv double %149, %151
  %153 = fsub double %152, 1.000000e+00
  br label %154

154:                                              ; preds = %146, %140
  %155 = phi double [ %145, %140 ], [ %153, %146 ]
  %156 = getelementptr inbounds nuw %struct.pointf_s, ptr %16, i32 0, i32 0
  store double %155, ptr %156, align 8, !tbaa !57
  %157 = getelementptr inbounds nuw %struct.pointf_s, ptr %16, i32 0, i32 1
  %158 = load double, ptr %157, align 8, !tbaa !59
  %159 = fcmp oge double %158, 0.000000e+00
  br i1 %159, label %160, label %166

160:                                              ; preds = %154
  %161 = getelementptr inbounds nuw %struct.pointf_s, ptr %16, i32 0, i32 1
  %162 = load double, ptr %161, align 8, !tbaa !59
  %163 = load i32, ptr %10, align 4, !tbaa !35
  %164 = sitofp i32 %163 to double
  %165 = fdiv double %162, %164
  br label %174

166:                                              ; preds = %154
  %167 = getelementptr inbounds nuw %struct.pointf_s, ptr %16, i32 0, i32 1
  %168 = load double, ptr %167, align 8, !tbaa !59
  %169 = fadd double %168, 1.000000e+00
  %170 = load i32, ptr %10, align 4, !tbaa !35
  %171 = sitofp i32 %170 to double
  %172 = fdiv double %169, %171
  %173 = fsub double %172, 1.000000e+00
  br label %174

174:                                              ; preds = %166, %160
  %175 = phi double [ %165, %160 ], [ %173, %166 ]
  %176 = getelementptr inbounds nuw %struct.pointf_s, ptr %16, i32 0, i32 1
  store double %175, ptr %176, align 8, !tbaa !59
  %177 = getelementptr inbounds nuw %struct.pointf_s, ptr %22, i32 0, i32 0
  %178 = getelementptr inbounds nuw %struct.pointf_s, ptr %16, i32 0, i32 0
  %179 = load double, ptr %178, align 8, !tbaa !57
  %180 = call double @llvm.round.f64(double %179)
  store double %180, ptr %177, align 8, !tbaa !57
  %181 = getelementptr inbounds nuw %struct.pointf_s, ptr %22, i32 0, i32 1
  %182 = getelementptr inbounds nuw %struct.pointf_s, ptr %16, i32 0, i32 1
  %183 = load double, ptr %182, align 8, !tbaa !59
  %184 = call double @llvm.round.f64(double %183)
  store double %184, ptr %181, align 8, !tbaa !59
  call void @llvm.memcpy.p0.p0.i64(ptr align 8 %16, ptr align 8 %22, i64 16, i1 false), !tbaa.struct !102
  %185 = getelementptr inbounds nuw %struct.pointf_s, ptr %17, i32 0, i32 0
  %186 = load double, ptr %185, align 8, !tbaa !57
  store double %186, ptr %18, align 8, !tbaa !27
  br label %187

187:                                              ; preds = %208, %174
  %188 = load double, ptr %18, align 8, !tbaa !27
  %189 = getelementptr inbounds nuw %struct.pointf_s, ptr %16, i32 0, i32 0
  %190 = load double, ptr %189, align 8, !tbaa !57
  %191 = fcmp ole double %188, %190
  br i1 %191, label %192, label %211

192:                                              ; preds = %187
  %193 = getelementptr inbounds nuw %struct.pointf_s, ptr %17, i32 0, i32 1
  %194 = load double, ptr %193, align 8, !tbaa !59
  store double %194, ptr %19, align 8, !tbaa !27
  br label %195

195:                                              ; preds = %204, %192
  %196 = load double, ptr %19, align 8, !tbaa !27
  %197 = getelementptr inbounds nuw %struct.pointf_s, ptr %16, i32 0, i32 1
  %198 = load double, ptr %197, align 8, !tbaa !59
  %199 = fcmp ole double %196, %198
  br i1 %199, label %200, label %207

200:                                              ; preds = %195
  %201 = load ptr, ptr %13, align 8, !tbaa !76
  %202 = load double, ptr %18, align 8, !tbaa !27
  %203 = load double, ptr %19, align 8, !tbaa !27
  call void @addPS(ptr noundef %201, double noundef %202, double noundef %203)
  br label %204

204:                                              ; preds = %200
  %205 = load double, ptr %19, align 8, !tbaa !27
  %206 = fadd double %205, 1.000000e+00
  store double %206, ptr %19, align 8, !tbaa !27
  br label %195, !llvm.loop !158

207:                                              ; preds = %195
  br label %208

208:                                              ; preds = %207
  %209 = load double, ptr %18, align 8, !tbaa !27
  %210 = fadd double %209, 1.000000e+00
  store double %210, ptr %18, align 8, !tbaa !27
  br label %187, !llvm.loop !159

211:                                              ; preds = %187
  %212 = load ptr, ptr %13, align 8, !tbaa !76
  %213 = call ptr @pointsOf(ptr noundef %212)
  %214 = load ptr, ptr %9, align 8, !tbaa !12
  %215 = getelementptr inbounds nuw %struct.ginfo, ptr %214, i32 0, i32 1
  store ptr %213, ptr %215, align 8, !tbaa !81
  %216 = load ptr, ptr %13, align 8, !tbaa !76
  %217 = call i32 @sizeOf(ptr noundef %216)
  %218 = load ptr, ptr %9, align 8, !tbaa !12
  %219 = getelementptr inbounds nuw %struct.ginfo, ptr %218, i32 0, i32 2
  store i32 %217, ptr %219, align 8, !tbaa !160
  %220 = getelementptr inbounds nuw %struct.boxf, ptr %0, i32 0, i32 1
  %221 = getelementptr inbounds nuw %struct.pointf_s, ptr %220, i32 0, i32 0
  %222 = load double, ptr %221, align 8, !tbaa !64
  %223 = getelementptr inbounds nuw %struct.boxf, ptr %0, i32 0, i32 0
  %224 = getelementptr inbounds nuw %struct.pointf_s, ptr %223, i32 0, i32 0
  %225 = load double, ptr %224, align 8, !tbaa !62
  %226 = fsub double %222, %225
  %227 = load i32, ptr %11, align 4, !tbaa !35
  %228 = mul i32 2, %227
  %229 = uitofp i32 %228 to double
  %230 = fadd double %226, %229
  %231 = load i32, ptr %10, align 4, !tbaa !35
  %232 = call i32 @GRID(double noundef %230, i32 noundef %231)
  store i32 %232, ptr %14, align 4, !tbaa !35
  %233 = getelementptr inbounds nuw %struct.boxf, ptr %0, i32 0, i32 1
  %234 = getelementptr inbounds nuw %struct.pointf_s, ptr %233, i32 0, i32 1
  %235 = load double, ptr %234, align 8, !tbaa !65
  %236 = getelementptr inbounds nuw %struct.boxf, ptr %0, i32 0, i32 0
  %237 = getelementptr inbounds nuw %struct.pointf_s, ptr %236, i32 0, i32 1
  %238 = load double, ptr %237, align 8, !tbaa !63
  %239 = fsub double %235, %238
  %240 = load i32, ptr %11, align 4, !tbaa !35
  %241 = mul i32 2, %240
  %242 = uitofp i32 %241 to double
  %243 = fadd double %239, %242
  %244 = load i32, ptr %10, align 4, !tbaa !35
  %245 = call i32 @GRID(double noundef %243, i32 noundef %244)
  store i32 %245, ptr %15, align 4, !tbaa !35
  %246 = load i32, ptr %14, align 4, !tbaa !35
  %247 = load i32, ptr %15, align 4, !tbaa !35
  %248 = add nsw i32 %246, %247
  %249 = load ptr, ptr %9, align 8, !tbaa !12
  %250 = getelementptr inbounds nuw %struct.ginfo, ptr %249, i32 0, i32 0
  store i32 %248, ptr %250, align 8, !tbaa !161
  %251 = load i8, ptr @Verbose, align 1, !tbaa !66
  %252 = zext i8 %251 to i32
  %253 = icmp sgt i32 %252, 2
  br i1 %253, label %254, label %292

254:                                              ; preds = %211
  call void @llvm.lifetime.start.p0(i64 4, ptr %23) #12
  %255 = load ptr, ptr @stderr, align 8, !tbaa !67
  %256 = load ptr, ptr %12, align 8, !tbaa !33
  %257 = load ptr, ptr %9, align 8, !tbaa !12
  %258 = getelementptr inbounds nuw %struct.ginfo, ptr %257, i32 0, i32 2
  %259 = load i32, ptr %258, align 8, !tbaa !160
  %260 = load i32, ptr %14, align 4, !tbaa !35
  %261 = load i32, ptr %15, align 4, !tbaa !35
  %262 = call i32 (ptr, ptr, ...) @fprintf(ptr noundef %255, ptr noundef @.str.23, ptr noundef %256, i32 noundef %259, i32 noundef %260, i32 noundef %261) #12
  store i32 0, ptr %23, align 4, !tbaa !35
  br label %263

263:                                              ; preds = %288, %254
  %264 = load i32, ptr %23, align 4, !tbaa !35
  %265 = load ptr, ptr %9, align 8, !tbaa !12
  %266 = getelementptr inbounds nuw %struct.ginfo, ptr %265, i32 0, i32 2
  %267 = load i32, ptr %266, align 8, !tbaa !160
  %268 = icmp slt i32 %264, %267
  br i1 %268, label %269, label %291

269:                                              ; preds = %263
  %270 = load ptr, ptr @stderr, align 8, !tbaa !67
  %271 = load ptr, ptr %9, align 8, !tbaa !12
  %272 = getelementptr inbounds nuw %struct.ginfo, ptr %271, i32 0, i32 1
  %273 = load ptr, ptr %272, align 8, !tbaa !81
  %274 = load i32, ptr %23, align 4, !tbaa !35
  %275 = sext i32 %274 to i64
  %276 = getelementptr inbounds %struct.pointf_s, ptr %273, i64 %275
  %277 = getelementptr inbounds nuw %struct.pointf_s, ptr %276, i32 0, i32 0
  %278 = load double, ptr %277, align 8, !tbaa !57
  %279 = load ptr, ptr %9, align 8, !tbaa !12
  %280 = getelementptr inbounds nuw %struct.ginfo, ptr %279, i32 0, i32 1
  %281 = load ptr, ptr %280, align 8, !tbaa !81
  %282 = load i32, ptr %23, align 4, !tbaa !35
  %283 = sext i32 %282 to i64
  %284 = getelementptr inbounds %struct.pointf_s, ptr %281, i64 %283
  %285 = getelementptr inbounds nuw %struct.pointf_s, ptr %284, i32 0, i32 1
  %286 = load double, ptr %285, align 8, !tbaa !59
  %287 = call i32 (ptr, ptr, ...) @fprintf(ptr noundef %270, ptr noundef @.str.24, double noundef %278, double noundef %286) #12
  br label %288

288:                                              ; preds = %269
  %289 = load i32, ptr %23, align 4, !tbaa !35
  %290 = add nsw i32 %289, 1
  store i32 %290, ptr %23, align 4, !tbaa !35
  br label %263, !llvm.loop !162

291:                                              ; preds = %263
  call void @llvm.lifetime.end.p0(i64 4, ptr %23) #12
  br label %292

292:                                              ; preds = %291, %211
  %293 = load ptr, ptr %13, align 8, !tbaa !76
  call void @freePS(ptr noundef %293)
  call void @llvm.lifetime.end.p0(i64 32, ptr %20) #12
  call void @llvm.lifetime.end.p0(i64 8, ptr %19) #12
  call void @llvm.lifetime.end.p0(i64 8, ptr %18) #12
  call void @llvm.lifetime.end.p0(i64 16, ptr %17) #12
  call void @llvm.lifetime.end.p0(i64 16, ptr %16) #12
  call void @llvm.lifetime.end.p0(i64 4, ptr %15) #12
  call void @llvm.lifetime.end.p0(i64 4, ptr %14) #12
  call void @llvm.lifetime.end.p0(i64 8, ptr %13) #12
  ret void
}