; Function Attrs: nounwind uwtable
define internal fastcc void @genBox(ptr noundef readonly byval(%struct.boxf) align 8 captures(none) %0, ptr noundef captures(none) %1, i32 noundef range(i32 1, -2147483648) %2, i32 noundef %3, double %4, double %5, ptr noundef %6) unnamed_addr #0 {
  %8 = load double, ptr %0, align 8, !tbaa !167
  %9 = tail call double @llvm.round.f64(double %8)
  %10 = getelementptr inbounds nuw i8, ptr %0, i64 8
  %11 = load double, ptr %10, align 8, !tbaa !168
  %12 = tail call double @llvm.round.f64(double %11)
  %13 = getelementptr inbounds nuw i8, ptr %0, i64 16
  %14 = load double, ptr %13, align 8, !tbaa !169
  %15 = tail call double @llvm.round.f64(double %14)
  %16 = getelementptr inbounds nuw i8, ptr %0, i64 24
  %17 = load double, ptr %16, align 8, !tbaa !170
  %18 = tail call double @llvm.round.f64(double %17)
  %19 = tail call ptr @newPS() #19
  %20 = uitofp i32 %3 to double
  %21 = fsub double %4, %20
  %22 = fsub double %5, %20
  %23 = fadd double %4, %15
  %24 = fsub double %23, %9
  %25 = fadd double %24, %20
  %26 = fadd double %5, %18
  %27 = fsub double %26, %12
  %28 = fadd double %27, %20
  %29 = fcmp ult double %21, 0.000000e+00
  br i1 %29, label %33, label %30

30:                                               ; preds = %7
  %31 = uitofp nneg i32 %2 to double
  %32 = fdiv double %21, %31
  br label %38

33:                                               ; preds = %7
  %34 = fadd double %21, 1.000000e+00
  %35 = uitofp nneg i32 %2 to double
  %36 = fdiv double %34, %35
  %37 = fadd double %36, -1.000000e+00
  br label %38

38:                                               ; preds = %33, %30
  %39 = phi double [ %32, %30 ], [ %37, %33 ]
  %40 = fcmp ult double %22, 0.000000e+00
  br i1 %40, label %44, label %41

41:                                               ; preds = %38
  %42 = uitofp nneg i32 %2 to double
  %43 = fdiv double %22, %42
  br label %49

44:                                               ; preds = %38
  %45 = fadd double %22, 1.000000e+00
  %46 = uitofp nneg i32 %2 to double
  %47 = fdiv double %45, %46
  %48 = fadd double %47, -1.000000e+00
  br label %49

49:                                               ; preds = %44, %41
  %50 = phi double [ %43, %41 ], [ %48, %44 ]
  %51 = tail call double @llvm.round.f64(double %39)
  %52 = tail call double @llvm.round.f64(double %50)
  %53 = fcmp ult double %25, 0.000000e+00
  br i1 %53, label %57, label %54

54:                                               ; preds = %49
  %55 = uitofp nneg i32 %2 to double
  %56 = fdiv double %25, %55
  br label %62

57:                                               ; preds = %49
  %58 = fadd double %25, 1.000000e+00
  %59 = uitofp nneg i32 %2 to double
  %60 = fdiv double %58, %59
  %61 = fadd double %60, -1.000000e+00
  br label %62

62:                                               ; preds = %57, %54
  %63 = phi double [ %56, %54 ], [ %61, %57 ]
  %64 = fcmp ult double %28, 0.000000e+00
  br i1 %64, label %68, label %65

65:                                               ; preds = %62
  %66 = uitofp nneg i32 %2 to double
  %67 = fdiv double %28, %66
  br label %73

68:                                               ; preds = %62
  %69 = fadd double %28, 1.000000e+00
  %70 = uitofp nneg i32 %2 to double
  %71 = fdiv double %69, %70
  %72 = fadd double %71, -1.000000e+00
  br label %73

73:                                               ; preds = %68, %65
  %74 = phi double [ %67, %65 ], [ %72, %68 ]
  %75 = tail call double @llvm.round.f64(double %63)
  %76 = tail call double @llvm.round.f64(double %74)
  %77 = fcmp ugt double %51, %75
  %78 = fcmp ugt double %52, %76
  %or.cond = select i1 %77, i1 true, i1 %78
  br i1 %or.cond, label %._crit_edge77, label %.preheader

.preheader:                                       ; preds = %73, %._crit_edge
  %.06676 = phi double [ %82, %._crit_edge ], [ %51, %73 ]
  br label %79

79:                                               ; preds = %.preheader, %79
  %.06775 = phi double [ %52, %.preheader ], [ %80, %79 ]
  tail call void @addPS(ptr noundef %19, double noundef %.06676, double noundef %.06775) #19
  %80 = fadd double %.06775, 1.000000e+00
  %81 = fcmp ugt double %80, %76
  br i1 %81, label %._crit_edge, label %79, !llvm.loop !171

._crit_edge:                                      ; preds = %79
  %82 = fadd double %.06676, 1.000000e+00
  %83 = fcmp ugt double %82, %75
  br i1 %83, label %._crit_edge77, label %.preheader, !llvm.loop !172

._crit_edge77:                                    ; preds = %._crit_edge, %73
  %84 = tail call ptr @pointsOf(ptr noundef %19) #19
  %85 = getelementptr inbounds nuw i8, ptr %1, i64 8
  store ptr %84, ptr %85, align 8, !tbaa !91
  %86 = tail call i32 @sizeOf(ptr noundef %19) #19
  %87 = getelementptr inbounds nuw i8, ptr %1, i64 16
  store i32 %86, ptr %87, align 8, !tbaa !92
  %88 = fsub double %14, %8
  %89 = shl i32 %3, 1
  %90 = uitofp i32 %89 to double
  %91 = fadd double %88, %90
  %92 = uitofp nneg i32 %2 to double
  %93 = fdiv double %91, %92
  %94 = tail call double @llvm.ceil.f64(double %93)
  %95 = fptosi double %94 to i32
  %96 = fsub double %17, %11
  %97 = fadd double %96, %90
  %98 = fdiv double %97, %92
  %99 = tail call double @llvm.ceil.f64(double %98)
  %100 = fptosi double %99 to i32
  %101 = add nsw i32 %100, %95
  store i32 %101, ptr %1, align 8, !tbaa !93
  %102 = load i8, ptr @Verbose, align 1, !tbaa !47
  %103 = icmp ugt i8 %102, 2
  br i1 %103, label %104, label %.loopexit

104:                                              ; preds = %._crit_edge77
  %105 = load ptr, ptr @stderr, align 8, !tbaa !14
  %106 = tail call i32 (ptr, ptr, ...) @fprintf(ptr noundef %105, ptr noundef nonnull @.str.23, ptr noundef %6, i32 noundef %86, i32 noundef %95, i32 noundef %100) #20
  %107 = load i32, ptr %87, align 8, !tbaa !92
  %108 = icmp sgt i32 %107, 0
  br i1 %108, label %.lr.ph, label %.loopexit

.lr.ph:                                           ; preds = %104, %.lr.ph
  %indvars.iv = phi i64 [ %indvars.iv.next, %.lr.ph ], [ 0, %104 ]
  %109 = load ptr, ptr @stderr, align 8, !tbaa !14
  %110 = load ptr, ptr %85, align 8, !tbaa !91
  %111 = getelementptr inbounds nuw %struct.pointf_s, ptr %110, i64 %indvars.iv
  %112 = load double, ptr %111, align 8, !tbaa !94
  %113 = getelementptr inbounds nuw i8, ptr %111, i64 8
  %114 = load double, ptr %113, align 8, !tbaa !95
  %115 = tail call i32 (ptr, ptr, ...) @fprintf(ptr noundef %109, ptr noundef nonnull @.str.24, double noundef %112, double noundef %114) #20
  %indvars.iv.next = add nuw nsw i64 %indvars.iv, 1
  %116 = load i32, ptr %87, align 8, !tbaa !92
  %117 = sext i32 %116 to i64
  %118 = icmp slt i64 %indvars.iv.next, %117
  br i1 %118, label %.lr.ph, label %.loopexit, !llvm.loop !173

.loopexit:                                        ; preds = %.lr.ph, %104, %._crit_edge77
  tail call void @freePS(ptr noundef %19) #19
  ret void
}